; Function Attrs: nounwind uwtable
define void @lv_gridnav_add(ptr noundef %0, i32 noundef %1) local_unnamed_addr #0 {
  %3 = tail call i32 @lv_obj_get_event_count(ptr noundef %0) #4
  %.not.i = icmp eq i32 %3, 0
  br i1 %.not.i, label %lv_gridnav_remove.exit, label %.lr.ph.i

.lr.ph.i:                                         ; preds = %2, %10
  %.010.i = phi i32 [ %11, %10 ], [ 0, %2 ]
  %4 = tail call ptr @lv_obj_get_event_dsc(ptr noundef %0, i32 noundef %.010.i) #4
  %5 = tail call ptr @lv_event_dsc_get_cb(ptr noundef %4) #4
  %6 = icmp eq ptr %5, @gridnav_event_cb
  br i1 %6, label %7, label %10

7:                                                ; preds = %.lr.ph.i
  %8 = tail call ptr @lv_event_dsc_get_user_data(ptr noundef %4) #4
  tail call void @lv_free(ptr noundef %8) #4
  %9 = tail call zeroext i1 @lv_obj_remove_event(ptr noundef %0, i32 noundef %.010.i) #4
  br label %lv_gridnav_remove.exit

10:                                               ; preds = %.lr.ph.i
  %11 = add nuw i32 %.010.i, 1
  %exitcond.not.i = icmp eq i32 %11, %3
  br i1 %exitcond.not.i, label %lv_gridnav_remove.exit, label %.lr.ph.i, !llvm.loop !3

lv_gridnav_remove.exit:                           ; preds = %10, %2, %7
  %12 = tail call ptr @lv_malloc(i64 noundef 16) #4
  %.not = icmp eq ptr %12, null
  br i1 %.not, label %.preheader, label %13

.preheader:                                       ; preds = %lv_gridnav_remove.exit, %.preheader
  br label %.preheader

13:                                               ; preds = %lv_gridnav_remove.exit
  store i32 %1, ptr %12, align 8, !tbaa !5
  %14 = getelementptr inbounds nuw i8, ptr %12, i64 8
  store ptr null, ptr %14, align 8, !tbaa !11
  %15 = tail call ptr @lv_obj_add_event_cb(ptr noundef %0, ptr noundef nonnull @gridnav_event_cb, i32 noundef 0, ptr noundef nonnull %12) #4
  tail call void @lv_obj_remove_flag(ptr noundef %0, i32 noundef 2048) #4
  ret void
}